(i__main__
LossHist
p0
(dp1
S'losses'
p2
(lp3
cnumpy.core.multiarray
scalar
p4
(cnumpy
dtype
p5
(S'f4'
p6
I0
I1
tp7
Rp8
(I3
S'<'
p9
NNNI-1
I-1
I0
tp10
bS'\xf5\xdb\x7f?'
p11
tp12
Rp13
ag4
(g8
S'\xc8\xd3m?'
p14
tp15
Rp16
ag4
(g8
S'\x02\xb4(?'
p17
tp18
Rp19
ag4
(g8
S'\xc22\xff>'
p20
tp21
Rp22
ag4
(g8
S'\x11\xdd\xcf>'
p23
tp24
Rp25
ag4
(g8
S'P`\xa5>'
p26
tp27
Rp28
ag4
(g8
S'\x19\xba\x9c>'
p29
tp30
Rp31
ag4
(g8
S'\xeaF\x98>'
p32
tp33
Rp34
ag4
(g8
S'\xf8\xe1\x99>'
p35
tp36
Rp37
asb.