(i__main__
LossHist
p0
(dp1
S'losses'
p2
(lp3
cnumpy.core.multiarray
scalar
p4
(cnumpy
dtype
p5
(S'f4'
p6
I0
I1
tp7
Rp8
(I3
S'<'
p9
NNNI-1
I-1
I0
tp10
bS'\xff\x92\x97>'
p11
tp12
Rp13
ag4
(g8
S'\x04\x9cG?'
p14
tp15
Rp16
ag4
(g8
S'W\xa2\x9b>'
p17
tp18
Rp19
ag4
(g8
S'a\xcdK?'
p20
tp21
Rp22
ag4
(g8
S'\x05\x96\xac>'
p23
tp24
Rp25
ag4
(g8
S'\x17\x07>?'
p26
tp27
Rp28
ag4
(g8
S'V\x07\x1e?'
p29
tp30
Rp31
ag4
(g8
S'\x12\\\x97>'
p32
tp33
Rp34
ag4
(g8
S'\xec}%?'
p35
tp36
Rp37
ag4
(g8
S'\\\\\x87>'
p38
tp39
Rp40
ag4
(g8
S'\xfe\xfa:?'
p41
tp42
Rp43
ag4
(g8
S'Y\x8c\x19?'
p44
tp45
Rp46
ag4
(g8
S',\x06R?'
p47
tp48
Rp49
ag4
(g8
S'\x11\xc8\x1e?'
p50
tp51
Rp52
ag4
(g8
S'8&+?'
p53
tp54
Rp55
ag4
(g8
S'\xa2\xf6\x99>'
p56
tp57
Rp58
ag4
(g8
S'\x15g\x8f>'
p59
tp60
Rp61
ag4
(g8
S'\xe9D@?'
p62
tp63
Rp64
ag4
(g8
S'\x06\xb9\x84>'
p65
tp66
Rp67
ag4
(g8
S'\xbd9\x10?'
p68
tp69
Rp70
ag4
(g8
S'\xfa\x00\x92>'
p71
tp72
Rp73
ag4
(g8
S'\x01\xc9.?'
p74
tp75
Rp76
ag4
(g8
S'\x01\xc1\x15?'
p77
tp78
Rp79
ag4
(g8
S'G\x89\x12?'
p80
tp81
Rp82
ag4
(g8
S"M'K?"
p83
tp84
Rp85
ag4
(g8
S'L\x8f\xa2>'
p86
tp87
Rp88
ag4
(g8
S'\xb4\xa4\x8e>'
p89
tp90
Rp91
ag4
(g8
S'\xe8\xa6\x85>'
p92
tp93
Rp94
ag4
(g8
S'\xffK!?'
p95
tp96
Rp97
ag4
(g8
S'\xec6&?'
p98
tp99
Rp100
ag4
(g8
S'\xe7\x17\x84>'
p101
tp102
Rp103
ag4
(g8
S'\xad\xc7\x85>'
p104
tp105
Rp106
ag4
(g8
S'\xfb\xd1\x19?'
p107
tp108
Rp109
ag4
(g8
S'I.+?'
p110
tp111
Rp112
ag4
(g8
S'\x06,\x11?'
p113
tp114
Rp115
ag4
(g8
S'J\x9e1?'
p116
tp117
Rp118
ag4
(g8
S'4M0?'
p119
tp120
Rp121
ag4
(g8
S'\x0eLe>'
p122
tp123
Rp124
ag4
(g8
S'\xc4\xa2R>'
p125
tp126
Rp127
ag4
(g8
S'\xffm\x11?'
p128
tp129
Rp130
ag4
(g8
S'\x9c\xbe\x82>'
p131
tp132
Rp133
ag4
(g8
S'\x16\x06\x10?'
p134
tp135
Rp136
ag4
(g8
S'\xf1 \x15?'
p137
tp138
Rp139
ag4
(g8
S'L\x8dQ>'
p140
tp141
Rp142
ag4
(g8
S'\x05r\x8a>'
p143
tp144
Rp145
ag4
(g8
S'\xc0\x844?'
p146
tp147
Rp148
ag4
(g8
S']W\x0e?'
p149
tp150
Rp151
ag4
(g8
S'\xb8\xf9\t?'
p152
tp153
Rp154
ag4
(g8
S'9\x91C?'
p155
tp156
Rp157
ag4
(g8
S'\xd3\r6?'
p158
tp159
Rp160
ag4
(g8
S'\xfe\xad\x07?'
p161
tp162
Rp163
ag4
(g8
S'A\xa5-?'
p164
tp165
Rp166
ag4
(g8
S'\xee\x88%?'
p167
tp168
Rp169
ag4
(g8
S'\x01;_>'
p170
tp171
Rp172
ag4
(g8
S'\xfe\x7f\n?'
p173
tp174
Rp175
ag4
(g8
S'\x01\xfd7>'
p176
tp177
Rp178
ag4
(g8
S'\xbf\xe8$?'
p179
tp180
Rp181
ag4
(g8
S'\xaf\xff\x11?'
p182
tp183
Rp184
ag4
(g8
S'\xabzr>'
p185
tp186
Rp187
ag4
(g8
S'\x07\x98\x83>'
p188
tp189
Rp190
ag4
(g8
S'\xe6\x05\x86>'
p191
tp192
Rp193
ag4
(g8
S'\x01\x82\x1f?'
p194
tp195
Rp196
ag4
(g8
S'\x02E\x80>'
p197
tp198
Rp199
ag4
(g8
S'\x00>T>'
p200
tp201
Rp202
ag4
(g8
S'\xa2\xfd\r?'
p203
tp204
Rp205
ag4
(g8
S'\xfe\xdb0>'
p206
tp207
Rp208
ag4
(g8
S'O\x89H>'
p209
tp210
Rp211
ag4
(g8
S'\xfcmS>'
p212
tp213
Rp214
ag4
(g8
S'G\xb5c>'
p215
tp216
Rp217
ag4
(g8
S'\xb5\\$>'
p218
tp219
Rp220
ag4
(g8
S'h\x8a >'
p221
tp222
Rp223
ag4
(g8
S'\xe7% >'
p224
tp225
Rp226
ag4
(g8
S'\x18\x01#>'
p227
tp228
Rp229
ag4
(g8
S'b($>'
p230
tp231
Rp232
ag4
(g8
S'l<\x1c>'
p233
tp234
Rp235
ag4
(g8
S'`\xf9\x1f>'
p236
tp237
Rp238
ag4
(g8
S'\x01`)>'
p239
tp240
Rp241
ag4
(g8
S'\x15\xe4!>'
p242
tp243
Rp244
ag4
(g8
S'\xb9\x08/>'
p245
tp246
Rp247
ag4
(g8
S'\xa4\xd3(>'
p248
tp249
Rp250
ag4
(g8
S'\xb8\xfa2>'
p251
tp252
Rp253
ag4
(g8
S'h?\x1b>'
p254
tp255
Rp256
ag4
(g8
S'b"%>'
p257
tp258
Rp259
ag4
(g8
S'\xec\x92\x1f>'
p260
tp261
Rp262
ag4
(g8
S'\x1a*\x1c>'
p263
tp264
Rp265
ag4
(g8
S'\xf9\xed\x16>'
p266
tp267
Rp268
ag4
(g8
S'\x1af\x1e>'
p269
tp270
Rp271
ag4
(g8
S'\xff\xe6 >'
p272
tp273
Rp274
ag4
(g8
S'\xa0\xce >'
p275
tp276
Rp277
asb.