(i__main__
LossHist
p0
(dp1
S'losses'
p2
(lp3
cnumpy.core.multiarray
scalar
p4
(cnumpy
dtype
p5
(S'f4'
p6
I0
I1
tp7
Rp8
(I3
S'<'
p9
NNNI-1
I-1
I0
tp10
bS'\xff\x95F?'
p11
tp12
Rp13
ag4
(g8
S'\xff\x0e\x0f?'
p14
tp15
Rp16
ag4
(g8
S';U3?'
p17
tp18
Rp19
ag4
(g8
S'\xbcZ\xbe>'
p20
tp21
Rp22
ag4
(g8
S'AM>?'
p23
tp24
Rp25
ag4
(g8
S'\xec$\x1f?'
p26
tp27
Rp28
ag4
(g8
S'\xb87\xa7>'
p29
tp30
Rp31
ag4
(g8
S'\x04\x0b-?'
p32
tp33
Rp34
ag4
(g8
S'\x0cR^?'
p35
tp36
Rp37
ag4
(g8
S'\xbd\x02\xb8>'
p38
tp39
Rp40
ag4
(g8
S'\xbbw\xa3>'
p41
tp42
Rp43
ag4
(g8
S'\x14\xc5\xa3>'
p44
tp45
Rp46
ag4
(g8
S'\xff\xe9I?'
p47
tp48
Rp49
ag4
(g8
S'\x02L\xa5>'
p50
tp51
Rp52
ag4
(g8
S'\x04"+?'
p53
tp54
Rp55
ag4
(g8
S'\xfa\xa3\x93>'
p56
tp57
Rp58
ag4
(g8
S'\x13.\xa3>'
p59
tp60
Rp61
ag4
(g8
S'\x13{\x9a>'
p62
tp63
Rp64
ag4
(g8
S'\xaf\xdc\x1a?'
p65
tp66
Rp67
ag4
(g8
S'B)\x18?'
p68
tp69
Rp70
ag4
(g8
S'Y\n\x11?'
p71
tp72
Rp73
ag4
(g8
S'H\x1b\x9e>'
p74
tp75
Rp76
ag4
(g8
S'\xee\x96\x1b?'
p77
tp78
Rp79
ag4
(g8
S'\x05\xca\x15?'
p80
tp81
Rp82
ag4
(g8
S'\xfe\xbe\x8e>'
p83
tp84
Rp85
ag4
(g8
S'\x01\x9f%?'
p86
tp87
Rp88
ag4
(g8
S'\x01\xf3\x90>'
p89
tp90
Rp91
ag4
(g8
S'\xb70\x9c>'
p92
tp93
Rp94
ag4
(g8
S'\x04\xba&?'
p95
tp96
Rp97
ag4
(g8
S'\xf8\x0e\x8d>'
p98
tp99
Rp100
ag4
(g8
S'\xe9\xdb\x93>'
p101
tp102
Rp103
ag4
(g8
S'\xed\xb8\x8f>'
p104
tp105
Rp106
ag4
(g8
S'\xfe8\x13?'
p107
tp108
Rp109
ag4
(g8
S'\x02\xa4\x84>'
p110
tp111
Rp112
ag4
(g8
S'2\xabv>'
p113
tp114
Rp115
ag4
(g8
S'\xee"(?'
p116
tp117
Rp118
ag4
(g8
S'\x01(\x12?'
p119
tp120
Rp121
ag4
(g8
S'\xc3\xd05?'
p122
tp123
Rp124
ag4
(g8
S'\xe3\xdb\x83>'
p125
tp126
Rp127
ag4
(g8
S'\x1b\xb2\x8b>'
p128
tp129
Rp130
ag4
(g8
S'\x06\x1a\x17?'
p131
tp132
Rp133
ag4
(g8
S'\xf3T}>'
p134
tp135
Rp136
ag4
(g8
S'O\xe5\x18?'
p137
tp138
Rp139
ag4
(g8
S'\xbd\x86)?'
p140
tp141
Rp142
ag4
(g8
S'\xa4\xd0\x14?'
p143
tp144
Rp145
ag4
(g8
S'\xfb\x0c.?'
p146
tp147
Rp148
ag4
(g8
S'\x01\x9b\x80>'
p149
tp150
Rp151
ag4
(g8
S'\xf0F{>'
p152
tp153
Rp154
ag4
(g8
S'\xfe\x9b+?'
p155
tp156
Rp157
ag4
(g8
S'\xff\x00(?'
p158
tp159
Rp160
ag4
(g8
S'\x04\xe0{>'
p161
tp162
Rp163
ag4
(g8
S'D\x9a ?'
p164
tp165
Rp166
ag4
(g8
S'P9\x13?'
p167
tp168
Rp169
ag4
(g8
S'K[\x12?'
p170
tp171
Rp172
ag4
(g8
S'\x05t\x07?'
p173
tp174
Rp175
ag4
(g8
S">'7?"
p176
tp177
Rp178
ag4
(g8
S'\xd2wF?'
p179
tp180
Rp181
ag4
(g8
S'C\xd9\x1d?'
p182
tp183
Rp184
ag4
(g8
S'\x14\x12\x0f?'
p185
tp186
Rp187
ag4
(g8
S'\xfa\xff\x17?'
p188
tp189
Rp190
ag4
(g8
S'6\xaab>'
p191
tp192
Rp193
ag4
(g8
S'\xfa\x8f\x08?'
p194
tp195
Rp196
ag4
(g8
S'T>\n?'
p197
tp198
Rp199
ag4
(g8
S'\xfe\xc8\x82>'
p200
tp201
Rp202
ag4
(g8
S'\x04\x00,?'
p203
tp204
Rp205
ag4
(g8
S'\x17\xd6\x0f?'
p206
tp207
Rp208
ag4
(g8
S'\xb7\xa4\x15?'
p209
tp210
Rp211
ag4
(g8
S'\x03b\x7f>'
p212
tp213
Rp214
ag4
(g8
S'\xc6\x8fs>'
p215
tp216
Rp217
ag4
(g8
S'\x12\xb7\x8c>'
p218
tp219
Rp220
ag4
(g8
S'\xa9?\r?'
p221
tp222
Rp223
ag4
(g8
S'\xbfrx>'
p224
tp225
Rp226
ag4
(g8
S'\xfbv\x8e>'
p227
tp228
Rp229
ag4
(g8
S'\xee^\x87>'
p230
tp231
Rp232
ag4
(g8
S'\xbe z>'
p233
tp234
Rp235
ag4
(g8
S'\xfe\xe5u>'
p236
tp237
Rp238
ag4
(g8
S'\xef[t>'
p239
tp240
Rp241
ag4
(g8
S'\x0e;\x14?'
p242
tp243
Rp244
ag4
(g8
S'\xc0\x05\x18?'
p245
tp246
Rp247
ag4
(g8
S'C01?'
p248
tp249
Rp250
ag4
(g8
S'E\xb5y>'
p251
tp252
Rp253
ag4
(g8
S'\x04\xe6\xff>'
p254
tp255
Rp256
ag4
(g8
S'\x11Jb>'
p257
tp258
Rp259
ag4
(g8
S'\xb0\xa4x>'
p260
tp261
Rp262
ag4
(g8
S'\xc0\xf5J>'
p263
tp264
Rp265
ag4
(g8
S'\x11\x87+?'
p266
tp267
Rp268
ag4
(g8
S'@6)?'
p269
tp270
Rp271
ag4
(g8
S'\xf3)o>'
p272
tp273
Rp274
ag4
(g8
S'\xfc7R>'
p275
tp276
Rp277
ag4
(g8
S'\x01\xce\x05?'
p278
tp279
Rp280
ag4
(g8
S'607?'
p281
tp282
Rp283
ag4
(g8
S'=Bk>'
p284
tp285
Rp286
ag4
(g8
S'\xe3o\x02?'
p287
tp288
Rp289
ag4
(g8
S'\xbbK\x11?'
p290
tp291
Rp292
ag4
(g8
S'F\xb4X>'
p293
tp294
Rp295
ag4
(g8
S'\x14\xe2\x0e?'
p296
tp297
Rp298
ag4
(g8
S'\xc5cL>'
p299
tp300
Rp301
ag4
(g8
S'\x116\x1d?'
p302
tp303
Rp304
ag4
(g8
S'\xee\x90\x14?'
p305
tp306
Rp307
ag4
(g8
S'\xac=\x1d?'
p308
tp309
Rp310
ag4
(g8
S'\xff\xb7\x8f>'
p311
tp312
Rp313
ag4
(g8
S'\xf3>]>'
p314
tp315
Rp316
ag4
(g8
S'Z\x8fr>'
p317
tp318
Rp319
ag4
(g8
S'\xe7\x9d\x05?'
p320
tp321
Rp322
ag4
(g8
S'\x01\xd7\x10?'
p323
tp324
Rp325
ag4
(g8
S'\xfe\x11\x83>'
p326
tp327
Rp328
ag4
(g8
S'=\xc4&?'
p329
tp330
Rp331
ag4
(g8
S'\x12u^>'
p332
tp333
Rp334
ag4
(g8
S'V\xaf\x0b?'
p335
tp336
Rp337
ag4
(g8
S'\xa4\xc8}>'
p338
tp339
Rp340
ag4
(g8
S'1*&?'
p341
tp342
Rp343
ag4
(g8
S'9*w>'
p344
tp345
Rp346
ag4
(g8
S'\xfb\xbe\x93>'
p347
tp348
Rp349
ag4
(g8
S'\xfbz\x8d>'
p350
tp351
Rp352
ag4
(g8
S'\xff\xf8\x89>'
p353
tp354
Rp355
ag4
(g8
S':|#?'
p356
tp357
Rp358
ag4
(g8
S'M\x8fs>'
p359
tp360
Rp361
ag4
(g8
S'\xfe\xa0\x80>'
p362
tp363
Rp364
ag4
(g8
S'\xff\xbb\x0c?'
p365
tp366
Rp367
ag4
(g8
S'K\xbf"?'
p368
tp369
Rp370
ag4
(g8
S'P\x8b\x1b?'
p371
tp372
Rp373
ag4
(g8
S'\x07\x0b\x02?'
p374
tp375
Rp376
ag4
(g8
S'\x00\xc3c>'
p377
tp378
Rp379
ag4
(g8
S'\xab\xcc\x0e?'
p380
tp381
Rp382
ag4
(g8
S'\xc1F2?'
p383
tp384
Rp385
ag4
(g8
S'\xe9.\x81>'
p386
tp387
Rp388
ag4
(g8
S'\x0e\xcf_>'
p389
tp390
Rp391
ag4
(g8
S'4\xcba>'
p392
tp393
Rp394
ag4
(g8
S'\x06\xba\x1c?'
p395
tp396
Rp397
ag4
(g8
S'\x07R\x05?'
p398
tp399
Rp400
ag4
(g8
S'\x9c@\x0b?'
p401
tp402
Rp403
ag4
(g8
S'\xad+\x19?'
p404
tp405
Rp406
ag4
(g8
S'\r\xea\xff>'
p407
tp408
Rp409
ag4
(g8
S'\x01\xf2\x05?'
p410
tp411
Rp412
ag4
(g8
S'\xa9\xf12>'
p413
tp414
Rp415
ag4
(g8
S'4D3?'
p416
tp417
Rp418
ag4
(g8
S'>\xc2t>'
p419
tp420
Rp421
ag4
(g8
S'\xa7E\x02?'
p422
tp423
Rp424
ag4
(g8
S'=\x7fd>'
p425
tp426
Rp427
ag4
(g8
S'D\xc4 ?'
p428
tp429
Rp430
ag4
(g8
S'\xc1Jo>'
p431
tp432
Rp433
ag4
(g8
S'\x013\x19?'
p434
tp435
Rp436
ag4
(g8
S'C:^>'
p437
tp438
Rp439
ag4
(g8
S'T\xb2\x1d>'
p440
tp441
Rp442
ag4
(g8
S'\xaci\x0f?'
p443
tp444
Rp445
ag4
(g8
S'\xc2\xe7\x1a?'
p446
tp447
Rp448
ag4
(g8
S'\xcf\xc3\xfc>'
p449
tp450
Rp451
ag4
(g8
S'\xec\xcc\x0b?'
p452
tp453
Rp454
ag4
(g8
S'\xfc{R>'
p455
tp456
Rp457
ag4
(g8
S'*\xe2\xfb>'
p458
tp459
Rp460
ag4
(g8
S'\xed\xa6j>'
p461
tp462
Rp463
ag4
(g8
S'\xc1\x1ex>'
p464
tp465
Rp466
ag4
(g8
S'\x02\xad\x0c?'
p467
tp468
Rp469
ag4
(g8
S'>\xeb\xf9>'
p470
tp471
Rp472
ag4
(g8
S'B\x89%?'
p473
tp474
Rp475
ag4
(g8
S'\xc0S\\>'
p476
tp477
Rp478
ag4
(g8
S'=t#?'
p479
tp480
Rp481
ag4
(g8
S'\x04W\x19?'
p482
tp483
Rp484
ag4
(g8
S'\xf9i\x03?'
p485
tp486
Rp487
ag4
(g8
S'\xba\xe2\x08?'
p488
tp489
Rp490
ag4
(g8
S'\x06\x1e\t?'
p491
tp492
Rp493
ag4
(g8
S'\xb2Bh>'
p494
tp495
Rp496
ag4
(g8
S'\xcd%\xef>'
p497
tp498
Rp499
ag4
(g8
S'\xca\xaeJ>'
p500
tp501
Rp502
ag4
(g8
S'\x06\x91\x14?'
p503
tp504
Rp505
ag4
(g8
S'\x01\xf3E>'
p506
tp507
Rp508
ag4
(g8
S'\xc6\x1f\xfa>'
p509
tp510
Rp511
ag4
(g8
S'\xa0ZW?'
p512
tp513
Rp514
ag4
(g8
S'\xc7\x15\xfd>'
p515
tp516
Rp517
ag4
(g8
S'\x04Y\xe2>'
p518
tp519
Rp520
ag4
(g8
S'\xa9o\x8e>'
p521
tp522
Rp523
ag4
(g8
S'\xfa\xb4\xb8>'
p524
tp525
Rp526
ag4
(g8
S'7<:?'
p527
tp528
Rp529
ag4
(g8
S'\xc1\xcc\x96>'
p530
tp531
Rp532
ag4
(g8
S'\xdb\x14\xf5>'
p533
tp534
Rp535
ag4
(g8
S'DT\xd2>'
p536
tp537
Rp538
ag4
(g8
S'D\xca\x0c?'
p539
tp540
Rp541
ag4
(g8
S'9\xbek>'
p542
tp543
Rp544
ag4
(g8
S'\x15N\x06?'
p545
tp546
Rp547
ag4
(g8
S'E\xd9\xcc>'
p548
tp549
Rp550
ag4
(g8
S'\x13\xa4\x17?'
p551
tp552
Rp553
ag4
(g8
S'\xbd\xe2\xcf>'
p554
tp555
Rp556
ag4
(g8
S'X\xab\x91>'
p557
tp558
Rp559
ag4
(g8
S'\x02K\x98>'
p560
tp561
Rp562
ag4
(g8
S'?ws>'
p563
tp564
Rp565
ag4
(g8
S'\xff3!?'
p566
tp567
Rp568
ag4
(g8
S'\xeb\x1a\x0b?'
p569
tp570
Rp571
ag4
(g8
S'@3R>'
p572
tp573
Rp574
ag4
(g8
S'L\x07K>'
p575
tp576
Rp577
ag4
(g8
S'\x11\x08=>'
p578
tp579
Rp580
ag4
(g8
S'\xfb\xeaW>'
p581
tp582
Rp583
ag4
(g8
S'\xefnh>'
p584
tp585
Rp586
ag4
(g8
S'\xfa\xb7\x0b?'
p587
tp588
Rp589
ag4
(g8
S'\xaeL->'
p590
tp591
Rp592
ag4
(g8
S'+\xfa\xfc>'
p593
tp594
Rp595
ag4
(g8
S'\x06\xe1\x07?'
p596
tp597
Rp598
ag4
(g8
S'\xfb\xba\x1b?'
p599
tp600
Rp601
ag4
(g8
S'\xa5$\n?'
p602
tp603
Rp604
ag4
(g8
S'\xeb\xf4\x15>'
p605
tp606
Rp607
ag4
(g8
S'\xee\xc6>>'
p608
tp609
Rp610
ag4
(g8
S'\x0f\xd4\x1e?'
p611
tp612
Rp613
ag4
(g8
S'A\x85"?'
p614
tp615
Rp616
ag4
(g8
S'\x04<b>'
p617
tp618
Rp619
ag4
(g8
S'6L%?'
p620
tp621
Rp622
ag4
(g8
S'\x05X\x0b?'
p623
tp624
Rp625
ag4
(g8
S'\xff\xbf5?'
p626
tp627
Rp628
ag4
(g8
S'\x11\xcb\x97>'
p629
tp630
Rp631
ag4
(g8
S'\xc4\xc0<>'
p632
tp633
Rp634
ag4
(g8
S'\xd6\xf7\xf7>'
p635
tp636
Rp637
ag4
(g8
S'3\xfd\xd8>'
p638
tp639
Rp640
ag4
(g8
S'\xf4\xe3\xe3>'
p641
tp642
Rp643
ag4
(g8
S'\xfe\xe9\x03?'
p644
tp645
Rp646
ag4
(g8
S'\xb48\x06?'
p647
tp648
Rp649
ag4
(g8
S'\x02~*>'
p650
tp651
Rp652
ag4
(g8
S'FwJ>'
p653
tp654
Rp655
ag4
(g8
S'\r\xa4M>'
p656
tp657
Rp658
ag4
(g8
S'\xcc\xfcq>'
p659
tp660
Rp661
ag4
(g8
S'\x0bdi>'
p662
tp663
Rp664
ag4
(g8
S'\x14\x8f=>'
p665
tp666
Rp667
ag4
(g8
S'\xfcIJ>'
p668
tp669
Rp670
ag4
(g8
S'\xff\xb0\x1d?'
p671
tp672
Rp673
ag4
(g8
S'M\x89\x06?'
p674
tp675
Rp676
ag4
(g8
S'\xf3\x85^>'
p677
tp678
Rp679
ag4
(g8
S'\x02=>>'
p680
tp681
Rp682
ag4
(g8
S'9@R>'
p683
tp684
Rp685
ag4
(g8
S'\x01O.>'
p686
tp687
Rp688
ag4
(g8
S'\xff\xa1\xeb>'
p689
tp690
Rp691
ag4
(g8
S'\xc0\xbf3>'
p692
tp693
Rp694
ag4
(g8
S'\xa4\x82 >'
p695
tp696
Rp697
ag4
(g8
S'\xb1\xed\x19>'
p698
tp699
Rp700
ag4
(g8
S'\xfd]\xfe>'
p701
tp702
Rp703
ag4
(g8
S'\xfcTZ>'
p704
tp705
Rp706
ag4
(g8
S'\x0f\xc6g>'
p707
tp708
Rp709
ag4
(g8
S"\xb5\xc2'?"
p710
tp711
Rp712
ag4
(g8
S'_\x16\n?'
p713
tp714
Rp715
ag4
(g8
S'\x11\xde"?'
p716
tp717
Rp718
ag4
(g8
S'\xf3z$?'
p719
tp720
Rp721
ag4
(g8
S'\xae(\x08?'
p722
tp723
Rp724
ag4
(g8
S'\x13\xc0\x05?'
p725
tp726
Rp727
ag4
(g8
S'\xb3\x114>'
p728
tp729
Rp730
ag4
(g8
S'?z3>'
p731
tp732
Rp733
ag4
(g8
S'\xfd\x86 ?'
p734
tp735
Rp736
ag4
(g8
S'\xc0B\xdb>'
p737
tp738
Rp739
ag4
(g8
S'\xc9\x8bO>'
p740
tp741
Rp742
ag4
(g8
S'\xec\xeaL>'
p743
tp744
Rp745
ag4
(g8
S'\x05\x10E>'
p746
tp747
Rp748
ag4
(g8
S'\x02\xf0V>'
p749
tp750
Rp751
ag4
(g8
S'\xec@\x0f?'
p752
tp753
Rp754
ag4
(g8
S'\x04\xb7;>'
p755
tp756
Rp757
ag4
(g8
S'\xd2gn>'
p758
tp759
Rp760
ag4
(g8
S'\xb6f\xf3>'
p761
tp762
Rp763
ag4
(g8
S'\xfd$R>'
p764
tp765
Rp766
ag4
(g8
S'\xaf\x98\x0c?'
p767
tp768
Rp769
ag4
(g8
S'P\x9d\x03?'
p770
tp771
Rp772
ag4
(g8
S'Q\xa5\xe4>'
p773
tp774
Rp775
ag4
(g8
S'\xbb\x04\xcd>'
p776
tp777
Rp778
ag4
(g8
S'X\x84\x00?'
p779
tp780
Rp781
ag4
(g8
S'\xa9\xdb\t?'
p782
tp783
Rp784
ag4
(g8
S'\xa3z\xf8>'
p785
tp786
Rp787
ag4
(g8
S'\x01\x8e\x06?'
p788
tp789
Rp790
ag4
(g8
S'\x02P\xd9>'
p791
tp792
Rp793
ag4
(g8
S'^\x1a\x0c>'
p794
tp795
Rp796
ag4
(g8
S'\xbe[.>'
p797
tp798
Rp799
ag4
(g8
S'S\xd13>'
p800
tp801
Rp802
ag4
(g8
S'\x04?M>'
p803
tp804
Rp805
ag4
(g8
S'a\xb5\x01?'
p806
tp807
Rp808
ag4
(g8
S'\xf0\xb4\xd7>'
p809
tp810
Rp811
ag4
(g8
S'@\xca:>'
p812
tp813
Rp814
ag4
(g8
S'\xc2\xa4a>'
p815
tp816
Rp817
ag4
(g8
S'\xfcY\xee>'
p818
tp819
Rp820
ag4
(g8
S'\xb6\xa7\x1b>'
p821
tp822
Rp823
ag4
(g8
S'O\xef\x1e>'
p824
tp825
Rp826
ag4
(g8
S'\xbe\xd1G>'
p827
tp828
Rp829
ag4
(g8
S'\xeb ->'
p830
tp831
Rp832
ag4
(g8
S'\xb3\x9e;>'
p833
tp834
Rp835
ag4
(g8
S'Z\xefi>'
p836
tp837
Rp838
ag4
(g8
S'K\x01e>'
p839
tp840
Rp841
ag4
(g8
S')v\xe3>'
p842
tp843
Rp844
ag4
(g8
S'\xc7+\xfc>'
p845
tp846
Rp847
ag4
(g8
S'c]\xe9>'
p848
tp849
Rp850
ag4
(g8
S'\xb7\xd6\x8b>'
p851
tp852
Rp853
ag4
(g8
S'\x02 `>'
p854
tp855
Rp856
ag4
(g8
S'gM\x03?'
p857
tp858
Rp859
ag4
(g8
S'\xf2\x84Q>'
p860
tp861
Rp862
ag4
(g8
S'H;N>'
p863
tp864
Rp865
ag4
(g8
S'\xe1\xb4c>'
p866
tp867
Rp868
ag4
(g8
S'\x05\xe7*>'
p869
tp870
Rp871
ag4
(g8
S'\xcb\xb3m>'
p872
tp873
Rp874
ag4
(g8
S'\x02\x16\xf3>'
p875
tp876
Rp877
ag4
(g8
S')p\xe4>'
p878
tp879
Rp880
ag4
(g8
S'\xb7\x85\xcd>'
p881
tp882
Rp883
ag4
(g8
S'\xff!U?'
p884
tp885
Rp886
ag4
(g8
S'\x01^\xcd>'
p887
tp888
Rp889
ag4
(g8
S'\xb8\xbd\xbc>'
p890
tp891
Rp892
ag4
(g8
S'\xab\xc4\x1a?'
p893
tp894
Rp895
ag4
(g8
S'Gb\x0e?'
p896
tp897
Rp898
ag4
(g8
S'\xac&)>'
p899
tp900
Rp901
ag4
(g8
S'\xbd\xf7\t?'
p902
tp903
Rp904
ag4
(g8
S'\xfe\xa8">'
p905
tp906
Rp907
ag4
(g8
S']>\r?'
p908
tp909
Rp910
ag4
(g8
S'6\xa2]>'
p911
tp912
Rp913
ag4
(g8
S'hS\x12>'
p914
tp915
Rp916
ag4
(g8
S'\x9f\xf4\x08?'
p917
tp918
Rp919
ag4
(g8
S's\xb3\xef>'
p920
tp921
Rp922
ag4
(g8
S'F\x92\xc2>'
p923
tp924
Rp925
ag4
(g8
S'\x14\xe5\xb5>'
p926
tp927
Rp928
ag4
(g8
S'\x01OI>'
p929
tp930
Rp931
ag4
(g8
S'\xc0P\xdd>'
p932
tp933
Rp934
ag4
(g8
S'\x01\x80\xd7>'
p935
tp936
Rp937
ag4
(g8
S'\xf3\x1c\x1b?'
p938
tp939
Rp940
ag4
(g8
S'<C\xe1>'
p941
tp942
Rp943
ag4
(g8
S'G\x85 >'
p944
tp945
Rp946
ag4
(g8
S'\xbd\xaf\xc5>'
p947
tp948
Rp949
ag4
(g8
S'\x03\x88\xd6>'
p950
tp951
Rp952
ag4
(g8
S'\xc3\x18!?'
p953
tp954
Rp955
ag4
(g8
S'\x00\xa8\xe4>'
p956
tp957
Rp958
ag4
(g8
S'\x1a\xe7\xe8>'
p959
tp960
Rp961
ag4
(g8
S'\xfe\x96\xbb>'
p962
tp963
Rp964
ag4
(g8
S'\xf4\xaat>'
p965
tp966
Rp967
ag4
(g8
S'<U+?'
p968
tp969
Rp970
ag4
(g8
S'\x11\xa8Y>'
p971
tp972
Rp973
ag4
(g8
S'J{U>'
p974
tp975
Rp976
ag4
(g8
S'\xddI\xfa>'
p977
tp978
Rp979
ag4
(g8
S'\xfe\xfc\x14>'
p980
tp981
Rp982
ag4
(g8
S'\x02\xca\xcc>'
p983
tp984
Rp985
ag4
(g8
S'\xaf\xa6\xed>'
p986
tp987
Rp988
ag4
(g8
S'\x16l\x07?'
p989
tp990
Rp991
ag4
(g8
S'\xfd\x04\xc3>'
p992
tp993
Rp994
ag4
(g8
S'\xb625>'
p995
tp996
Rp997
ag4
(g8
S'\x02m\x82>'
p998
tp999
Rp1000
ag4
(g8
S':\xe7\xd5>'
p1001
tp1002
Rp1003
ag4
(g8
S'A\xf0\xc3>'
p1004
tp1005
Rp1006
ag4
(g8
S'7\xa8T>'
p1007
tp1008
Rp1009
ag4
(g8
S'\xaf\xfa\xd5>'
p1010
tp1011
Rp1012
ag4
(g8
S'D\xa2\x1c?'
p1013
tp1014
Rp1015
ag4
(g8
S'\x01\x0c.>'
p1016
tp1017
Rp1018
ag4
(g8
S'H\xb0G>'
p1019
tp1020
Rp1021
ag4
(g8
S'\xc4\x87E>'
p1022
tp1023
Rp1024
ag4
(g8
S'\xce.G>'
p1025
tp1026
Rp1027
ag4
(g8
S'7 \xcc>'
p1028
tp1029
Rp1030
ag4
(g8
S'\x0e\xb1\xc8>'
p1031
tp1032
Rp1033
ag4
(g8
S'FF:>'
p1034
tp1035
Rp1036
ag4
(g8
S'95\xb8>'
p1037
tp1038
Rp1039
ag4
(g8
S'\xfe\x9dB>'
p1040
tp1041
Rp1042
ag4
(g8
S'\x1a\x90\x1c>'
p1043
tp1044
Rp1045
ag4
(g8
S'\x19r\x08>'
p1046
tp1047
Rp1048
ag4
(g8
S'<\x114>'
p1049
tp1050
Rp1051
ag4
(g8
S'\xf2$\xd4>'
p1052
tp1053
Rp1054
ag4
(g8
S'\xfb[\xae>'
p1055
tp1056
Rp1057
ag4
(g8
S'\xb8BM>'
p1058
tp1059
Rp1060
ag4
(g8
S'\xb5%G>'
p1061
tp1062
Rp1063
ag4
(g8
S'\xf4\xa9\xdd>'
p1064
tp1065
Rp1066
ag4
(g8
S'H}9>'
p1067
tp1068
Rp1069
ag4
(g8
S'W\xee\x02?'
p1070
tp1071
Rp1072
ag4
(g8
S'E\xa6\xee='
p1073
tp1074
Rp1075
ag4
(g8
S'\xff\xf9\xeb='
p1076
tp1077
Rp1078
ag4
(g8
S'\x11\xd6*>'
p1079
tp1080
Rp1081
ag4
(g8
S'\xfc\xcaO>'
p1082
tp1083
Rp1084
ag4
(g8
S'\xfa=\xdf='
p1085
tp1086
Rp1087
ag4
(g8
S'G\rv>'
p1088
tp1089
Rp1090
ag4
(g8
S'\xfe\x9f\x01?'
p1091
tp1092
Rp1093
ag4
(g8
S'=7\xce>'
p1094
tp1095
Rp1096
ag4
(g8
S'\xc2U9>'
p1097
tp1098
Rp1099
ag4
(g8
S'\xe7.\x00?'
p1100
tp1101
Rp1102
ag4
(g8
S'\x84U\x00>'
p1103
tp1104
Rp1105
ag4
(g8
S'>tK>'
p1106
tp1107
Rp1108
ag4
(g8
S'\xf6\x99\xf9>'
p1109
tp1110
Rp1111
ag4
(g8
S'\x01VI>'
p1112
tp1113
Rp1114
ag4
(g8
S'4@h>'
p1115
tp1116
Rp1117
ag4
(g8
S'\x104->'
p1118
tp1119
Rp1120
ag4
(g8
S'7\x0e\xed='
p1121
tp1122
Rp1123
ag4
(g8
S'\xfe\xfa)>'
p1124
tp1125
Rp1126
ag4
(g8
S'\x01\xe9=>'
p1127
tp1128
Rp1129
ag4
(g8
S'\x01\xd0\x02?'
p1130
tp1131
Rp1132
ag4
(g8
S'\xbd58>'
p1133
tp1134
Rp1135
ag4
(g8
S'\x01v\xeb='
p1136
tp1137
Rp1138
ag4
(g8
S'\xeb\x93\x1a>'
p1139
tp1140
Rp1141
ag4
(g8
S'\x01\xad@>'
p1142
tp1143
Rp1144
ag4
(g8
S'\xbe\x92\xda>'
p1145
tp1146
Rp1147
ag4
(g8
S';QO>'
p1148
tp1149
Rp1150
ag4
(g8
S'\xa96!>'
p1151
tp1152
Rp1153
ag4
(g8
S'\x05D\xe2='
p1154
tp1155
Rp1156
ag4
(g8
S's\x8d\x04>'
p1157
tp1158
Rp1159
ag4
(g8
S'\x91\x7f\x08>'
p1160
tp1161
Rp1162
ag4
(g8
S'\xb5\x83&>'
p1163
tp1164
Rp1165
ag4
(g8
S'\xf98\x0f>'
p1166
tp1167
Rp1168
ag4
(g8
S'[v\x00?'
p1169
tp1170
Rp1171
ag4
(g8
S'>\x1b\xd5='
p1172
tp1173
Rp1174
ag4
(g8
S'\x90&\x02>'
p1175
tp1176
Rp1177
ag4
(g8
S'6\x12\xc0>'
p1178
tp1179
Rp1180
ag4
(g8
S'\xee\xfc\x0c?'
p1181
tp1182
Rp1183
ag4
(g8
S'\xa6\xe7\xb2>'
p1184
tp1185
Rp1186
ag4
(g8
S'\xc7zV>'
p1187
tp1188
Rp1189
ag4
(g8
S'\xa4\xfc\x1d>'
p1190
tp1191
Rp1192
ag4
(g8
S'\xbf\xacD>'
p1193
tp1194
Rp1195
ag4
(g8
S"\x12<'>"
p1196
tp1197
Rp1198
ag4
(g8
S'\xb3\xd6\xda>'
p1199
tp1200
Rp1201
ag4
(g8
S'\x0f<\xe2>'
p1202
tp1203
Rp1204
ag4
(g8
S'\x01\xe4,>'
p1205
tp1206
Rp1207
ag4
(g8
S';9\xc6>'
p1208
tp1209
Rp1210
ag4
(g8
S'\xa3\xf20?'
p1211
tp1212
Rp1213
ag4
(g8
S'\xc8*\xec='
p1214
tp1215
Rp1216
ag4
(g8
S'\xa1)\x07>'
p1217
tp1218
Rp1219
ag4
(g8
S'\xc0\x93\xcf='
p1220
tp1221
Rp1222
ag4
(g8
S'\xc0;\xc8='
p1223
tp1224
Rp1225
ag4
(g8
S'\xe2\xea\xfb='
p1226
tp1227
Rp1228
ag4
(g8
S'\xf9\x10\x05>'
p1229
tp1230
Rp1231
ag4
(g8
S'\x13e\xfe='
p1232
tp1233
Rp1234
ag4
(g8
S'\xfc\x0b\xdd='
p1235
tp1236
Rp1237
ag4
(g8
S'F\xe3?>'
p1238
tp1239
Rp1240
ag4
(g8
S'\xed\xd4\xd3>'
p1241
tp1242
Rp1243
ag4
(g8
S'fg\x02?'
p1244
tp1245
Rp1246
ag4
(g8
S'\xeb*\xfe='
p1247
tp1248
Rp1249
ag4
(g8
S'\xfb:\xc2='
p1250
tp1251
Rp1252
ag4
(g8
S'B\xc9\xe2>'
p1253
tp1254
Rp1255
ag4
(g8
S'\x04@\xb9>'
p1256
tp1257
Rp1258
ag4
(g8
S'\xea"->'
p1259
tp1260
Rp1261
ag4
(g8
S'\xff\xbb\x1b>'
p1262
tp1263
Rp1264
ag4
(g8
S'\xe7/\x10>'
p1265
tp1266
Rp1267
ag4
(g8
S'\xcf\xb0\xd2>'
p1268
tp1269
Rp1270
ag4
(g8
S'J/\xd9>'
p1271
tp1272
Rp1273
ag4
(g8
S'\xbe\xa7\xc1>'
p1274
tp1275
Rp1276
ag4
(g8
S'\xc7\xc9S>'
p1277
tp1278
Rp1279
ag4
(g8
S'\xff7\xea='
p1280
tp1281
Rp1282
ag4
(g8
S'9-\xea='
p1283
tp1284
Rp1285
ag4
(g8
S'\xfe\x99\xf0>'
p1286
tp1287
Rp1288
ag4
(g8
S'\xfd\xceL>'
p1289
tp1290
Rp1291
ag4
(g8
S'<)<>'
p1292
tp1293
Rp1294
ag4
(g8
S'\x03\xc4&?'
p1295
tp1296
Rp1297
ag4
(g8
S'\xe5\x08\x04>'
p1298
tp1299
Rp1300
ag4
(g8
S'\xc7F\xc5>'
p1301
tp1302
Rp1303
ag4
(g8
S'\xce;\xf3='
p1304
tp1305
Rp1306
ag4
(g8
S'\xfa{\r>'
p1307
tp1308
Rp1309
ag4
(g8
S'\xac\x17\x1f>'
p1310
tp1311
Rp1312
ag4
(g8
S'\xbd\xd9\xe4='
p1313
tp1314
Rp1315
ag4
(g8
S'\xe5x\xcf>'
p1316
tp1317
Rp1318
ag4
(g8
S'\xc6\x00\xdd='
p1319
tp1320
Rp1321
ag4
(g8
S'\xff\xba\xf1='
p1322
tp1323
Rp1324
ag4
(g8
S'\xfa\xf4\x1c>'
p1325
tp1326
Rp1327
ag4
(g8
S'@\xe6B>'
p1328
tp1329
Rp1330
ag4
(g8
S'\xb7\xde\x16>'
p1331
tp1332
Rp1333
ag4
(g8
S"\x19'\xcc>"
p1334
tp1335
Rp1336
ag4
(g8
S'\xaf\x9d\x08>'
p1337
tp1338
Rp1339
ag4
(g8
S'\xb4B.>'
p1340
tp1341
Rp1342
ag4
(g8
S'\x14k\x10>'
p1343
tp1344
Rp1345
ag4
(g8
S'\x0fX\xd2='
p1346
tp1347
Rp1348
ag4
(g8
S'\xecr\xe4>'
p1349
tp1350
Rp1351
ag4
(g8
S'\x13\x06\xbe>'
p1352
tp1353
Rp1354
ag4
(g8
S'\x0fh\xd5>'
p1355
tp1356
Rp1357
ag4
(g8
S'\xcd\xc2\xcf>'
p1358
tp1359
Rp1360
ag4
(g8
S'Sb1>'
p1361
tp1362
Rp1363
ag4
(g8
S'\x01A\xc8>'
p1364
tp1365
Rp1366
ag4
(g8
S'6\x0f\xc0>'
p1367
tp1368
Rp1369
ag4
(g8
S'\xfcn\x82>'
p1370
tp1371
Rp1372
ag4
(g8
S'\xdbQ\xef>'
p1373
tp1374
Rp1375
ag4
(g8
S'\xa5$n>'
p1376
tp1377
Rp1378
ag4
(g8
S'\xf0Y\xd2>'
p1379
tp1380
Rp1381
ag4
(g8
S'Vk->'
p1382
tp1383
Rp1384
ag4
(g8
S'j}\x12>'
p1385
tp1386
Rp1387
ag4
(g8
S'Z\xa4\x15>'
p1388
tp1389
Rp1390
ag4
(g8
S'\xfc\x0b\xdf>'
p1391
tp1392
Rp1393
ag4
(g8
S'\x16O\x1f>'
p1394
tp1395
Rp1396
ag4
(g8
S'\xfe^\xbd>'
p1397
tp1398
Rp1399
ag4
(g8
S'\x04\xdc\xfb>'
p1400
tp1401
Rp1402
ag4
(g8
S'\xb2@\n?'
p1403
tp1404
Rp1405
ag4
(g8
S'\x14\x97\x0b>'
p1406
tp1407
Rp1408
ag4
(g8
S'\xb0\xf2->'
p1409
tp1410
Rp1411
ag4
(g8
S'\xff}\xd9>'
p1412
tp1413
Rp1414
ag4
(g8
S'\xff<\x01?'
p1415
tp1416
Rp1417
ag4
(g8
S'\xee\x9d >'
p1418
tp1419
Rp1420
ag4
(g8
S'\x90\xb0\n>'
p1421
tp1422
Rp1423
ag4
(g8
S'(\x0e\xf8>'
p1424
tp1425
Rp1426
ag4
(g8
S'\xfb\x9d2>'
p1427
tp1428
Rp1429
ag4
(g8
S'\x06w\x05?'
p1430
tp1431
Rp1432
ag4
(g8
S'\xf0\xb7\xf1>'
p1433
tp1434
Rp1435
ag4
(g8
S'\t\xbb\xd5>'
p1436
tp1437
Rp1438
ag4
(g8
S'\x168\x07>'
p1439
tp1440
Rp1441
ag4
(g8
S'D\xe1\x1a?'
p1442
tp1443
Rp1444
ag4
(g8
S'K+\xfb='
p1445
tp1446
Rp1447
ag4
(g8
S'\xba\xaa\xb8='
p1448
tp1449
Rp1450
ag4
(g8
S'\x11`\x0b?'
p1451
tp1452
Rp1453
ag4
(g8
S'.\x0e\xd3>'
p1454
tp1455
Rp1456
ag4
(g8
S'\xebq\xc0='
p1457
tp1458
Rp1459
ag4
(g8
S'\xefH\xbb>'
p1460
tp1461
Rp1462
ag4
(g8
S'K\xe6\xd5='
p1463
tp1464
Rp1465
ag4
(g8
S'\xc7\xf5^>'
p1466
tp1467
Rp1468
ag4
(g8
S'\xeb"R>'
p1469
tp1470
Rp1471
ag4
(g8
S'\xe4\x86\xdf>'
p1472
tp1473
Rp1474
ag4
(g8
S'\xea&\x18>'
p1475
tp1476
Rp1477
ag4
(g8
S'\x043\xbd>'
p1478
tp1479
Rp1480
ag4
(g8
S'1("?'
p1481
tp1482
Rp1483
ag4
(g8
S'\xb2\xc7\xb7>'
p1484
tp1485
Rp1486
ag4
(g8
S'\x16 \x0b>'
p1487
tp1488
Rp1489
ag4
(g8
S'\x12aE>'
p1490
tp1491
Rp1492
ag4
(g8
S'\xea6\xbb='
p1493
tp1494
Rp1495
ag4
(g8
S'K:\r?'
p1496
tp1497
Rp1498
ag4
(g8
S'FU\xd6='
p1499
tp1500
Rp1501
ag4
(g8
S'\x19\t\x0f>'
p1502
tp1503
Rp1504
ag4
(g8
S'\x12\xe1\xda>'
p1505
tp1506
Rp1507
ag4
(g8
S'\xbf%->'
p1508
tp1509
Rp1510
ag4
(g8
S'\x04#(>'
p1511
tp1512
Rp1513
ag4
(g8
S'\xfe\xef\xfd='
p1514
tp1515
Rp1516
ag4
(g8
S'\xc5<\xb8>'
p1517
tp1518
Rp1519
ag4
(g8
S'\x060\x06?'
p1520
tp1521
Rp1522
ag4
(g8
S'\x0e\xbe\xd3='
p1523
tp1524
Rp1525
ag4
(g8
S'Fb\xb2>'
p1526
tp1527
Rp1528
ag4
(g8
S'\x05\x98\xc5='
p1529
tp1530
Rp1531
ag4
(g8
S'\xd0\x1b\xeb='
p1532
tp1533
Rp1534
ag4
(g8
S'\xe9\xf1\x1a>'
p1535
tp1536
Rp1537
ag4
(g8
S'\xab\x11\r>'
p1538
tp1539
Rp1540
ag4
(g8
S'\x99\xc7\x01>'
p1541
tp1542
Rp1543
ag4
(g8
S'\xff\xb8\xc3>'
p1544
tp1545
Rp1546
ag4
(g8
S'\xff(\x1d>'
p1547
tp1548
Rp1549
ag4
(g8
S'\xba\xc6 ?'
p1550
tp1551
Rp1552
ag4
(g8
S'N\xf8\xb5>'
p1553
tp1554
Rp1555
ag4
(g8
S'\xf0!\xf7='
p1556
tp1557
Rp1558
ag4
(g8
S'GW\x00?'
p1559
tp1560
Rp1561
ag4
(g8
S'\xfe\xde\n?'
p1562
tp1563
Rp1564
ag4
(g8
S'\xc2\xf8\xf2='
p1565
tp1566
Rp1567
ag4
(g8
S'\xf3\x90\xe7='
p1568
tp1569
Rp1570
ag4
(g8
S'\x05\r\x0b?'
p1571
tp1572
Rp1573
ag4
(g8
S'\xbd\xd0\x07?'
p1574
tp1575
Rp1576
ag4
(g8
S'\xff\xbd\xd8>'
p1577
tp1578
Rp1579
ag4
(g8
S'\x06\xc6\x18>'
p1580
tp1581
Rp1582
ag4
(g8
S'\xcd8Y>'
p1583
tp1584
Rp1585
ag4
(g8
S'\xa5\xab!>'
p1586
tp1587
Rp1588
ag4
(g8
S'q>\x01>'
p1589
tp1590
Rp1591
ag4
(g8
S'M\xa3.>'
p1592
tp1593
Rp1594
ag4
(g8
S'\xc8t>>'
p1595
tp1596
Rp1597
ag4
(g8
S'\xc5#->'
p1598
tp1599
Rp1600
ag4
(g8
S'L;\xfc='
p1601
tp1602
Rp1603
ag4
(g8
S'*\xf8\xfc>'
p1604
tp1605
Rp1606
ag4
(g8
S'\xd8"\x17?'
p1607
tp1608
Rp1609
ag4
(g8
S'\xef\x05%>'
p1610
tp1611
Rp1612
ag4
(g8
S'=A\xca>'
p1613
tp1614
Rp1615
ag4
(g8
S'C\xe5\xf6='
p1616
tp1617
Rp1618
ag4
(g8
S'\xe1\x0e\xd4>'
p1619
tp1620
Rp1621
ag4
(g8
S'I.\x9b>'
p1622
tp1623
Rp1624
ag4
(g8
S'BB*>'
p1625
tp1626
Rp1627
ag4
(g8
S'\xebf\t?'
p1628
tp1629
Rp1630
ag4
(g8
S'\x13O\xa0>'
p1631
tp1632
Rp1633
ag4
(g8
S'\x01\x1a\xa4>'
p1634
tp1635
Rp1636
ag4
(g8
S'\r\xccl>'
p1637
tp1638
Rp1639
ag4
(g8
S'gf\r>'
p1640
tp1641
Rp1642
ag4
(g8
S'4\xca\xe0>'
p1643
tp1644
Rp1645
ag4
(g8
S'\x04\x02\xbc>'
p1646
tp1647
Rp1648
ag4
(g8
S'\xea\xea\x1d>'
p1649
tp1650
Rp1651
ag4
(g8
S'\xbboC>'
p1652
tp1653
Rp1654
ag4
(g8
S'\x01c\xa6='
p1655
tp1656
Rp1657
ag4
(g8
S'\x14a\xd4>'
p1658
tp1659
Rp1660
ag4
(g8
S'\x01\xbd%>'
p1661
tp1662
Rp1663
ag4
(g8
S'_\x17\x10>'
p1664
tp1665
Rp1666
ag4
(g8
S'\xec!(>'
p1667
tp1668
Rp1669
ag4
(g8
S'\xe8R\x08>'
p1670
tp1671
Rp1672
ag4
(g8
S'\x19E\xc8>'
p1673
tp1674
Rp1675
ag4
(g8
S'\xb8\x07\xb5>'
p1676
tp1677
Rp1678
ag4
(g8
S'\x04=\xeb='
p1679
tp1680
Rp1681
ag4
(g8
S'\xe93\x04?'
p1682
tp1683
Rp1684
ag4
(g8
S'\x01\xf5\xb3>'
p1685
tp1686
Rp1687
ag4
(g8
S'UI\x06>'
p1688
tp1689
Rp1690
ag4
(g8
S'\xbe\xef">'
p1691
tp1692
Rp1693
ag4
(g8
S'\x05\xda/>'
p1694
tp1695
Rp1696
ag4
(g8
S'[~\x03>'
p1697
tp1698
Rp1699
ag4
(g8
S'S\x15\xde>'
p1700
tp1701
Rp1702
ag4
(g8
S'>\x95\xed>'
p1703
tp1704
Rp1705
ag4
(g8
S'\xcc\xbe\x08?'
p1706
tp1707
Rp1708
ag4
(g8
S'@\x03\xa3>'
p1709
tp1710
Rp1711
ag4
(g8
S'\x1a\xc9\xda>'
p1712
tp1713
Rp1714
ag4
(g8
S'Kz\x1b>'
p1715
tp1716
Rp1717
ag4
(g8
S'\xcb\xfc1>'
p1718
tp1719
Rp1720
ag4
(g8
S'\x11\xa3\xb3>'
p1721
tp1722
Rp1723
ag4
(g8
S'\xff\xaf]>'
p1724
tp1725
Rp1726
ag4
(g8
S'\x02\xad=>'
p1727
tp1728
Rp1729
ag4
(g8
S'\x1b\xf3\xf1='
p1730
tp1731
Rp1732
ag4
(g8
S'\r\x13\xeb='
p1733
tp1734
Rp1735
ag4
(g8
S'\xff\xd9$>'
p1736
tp1737
Rp1738
ag4
(g8
S'\xab\xb2\x13>'
p1739
tp1740
Rp1741
ag4
(g8
S'\xe9\xa8\x06>'
p1742
tp1743
Rp1744
ag4
(g8
S'\xc5\xa8\xd1='
p1745
tp1746
Rp1747
ag4
(g8
S'E=\xc2>'
p1748
tp1749
Rp1750
ag4
(g8
S'\x02\xc0<>'
p1751
tp1752
Rp1753
ag4
(g8
S'7\x80\xde>'
p1754
tp1755
Rp1756
ag4
(g8
S'\x01+\xbd>'
p1757
tp1758
Rp1759
ag4
(g8
S'\xb8\xe22>'
p1760
tp1761
Rp1762
ag4
(g8
S'?\x1e\xcd>'
p1763
tp1764
Rp1765
ag4
(g8
S'c)\xfb>'
p1766
tp1767
Rp1768
ag4
(g8
S'0j\xc4>'
p1769
tp1770
Rp1771
ag4
(g8
S'\xebC\x9f>'
p1772
tp1773
Rp1774
ag4
(g8
S'Y[/>'
p1775
tp1776
Rp1777
ag4
(g8
S'\xfe\x8f\xd1>'
p1778
tp1779
Rp1780
ag4
(g8
S'?\x05\xd2>'
p1781
tp1782
Rp1783
ag4
(g8
S'\x04\xe4\xb2>'
p1784
tp1785
Rp1786
ag4
(g8
S'\xc7\r\xc6>'
p1787
tp1788
Rp1789
ag4
(g8
S'\xc2\xfb\xc1>'
p1790
tp1791
Rp1792
ag4
(g8
S'\xc5H\x0f?'
p1793
tp1794
Rp1795
ag4
(g8
S'\x04%\xbf>'
p1796
tp1797
Rp1798
ag4
(g8
S'\xfd5\xd6>'
p1799
tp1800
Rp1801
ag4
(g8
S'\x05\xb0\x00?'
p1802
tp1803
Rp1804
ag4
(g8
S'\xbd\xf0\x06?'
p1805
tp1806
Rp1807
ag4
(g8
S'\xff \xc4>'
p1808
tp1809
Rp1810
ag4
(g8
S'\x13\x98\x93>'
p1811
tp1812
Rp1813
ag4
(g8
S'\x01\xfe\xd2>'
p1814
tp1815
Rp1816
ag4
(g8
S'MK\xaa>'
p1817
tp1818
Rp1819
ag4
(g8
S'\xec\xff\xa0>'
p1820
tp1821
Rp1822
ag4
(g8
S'\xc3\xf1\n?'
p1823
tp1824
Rp1825
ag4
(g8
S'?\xa6\xa6>'
p1826
tp1827
Rp1828
ag4
(g8
S'\xea\x12\xa3>'
p1829
tp1830
Rp1831
ag4
(g8
S'N+6>'
p1832
tp1833
Rp1834
ag4
(g8
S';\xc8\xd1='
p1835
tp1836
Rp1837
ag4
(g8
S'\xdd^\xe4>'
p1838
tp1839
Rp1840
ag4
(g8
S'\xff\xef\xef='
p1841
tp1842
Rp1843
ag4
(g8
S'\x02\xbb\xb4>'
p1844
tp1845
Rp1846
ag4
(g8
S'\xd5\x8dj>'
p1847
tp1848
Rp1849
ag4
(g8
S'\xfe-\x0e>'
p1850
tp1851
Rp1852
ag4
(g8
S'\xae$\x08?'
p1853
tp1854
Rp1855
ag4
(g8
S'R\xfd\xa0='
p1856
tp1857
Rp1858
ag4
(g8
S'\xb3\xda\xaf>'
p1859
tp1860
Rp1861
ag4
(g8
S'\x85&j>'
p1862
tp1863
Rp1864
ag4
(g8
S'\x04\x8c\xc6='
p1865
tp1866
Rp1867
asb.