(i__main__
LossHist
p0
(dp1
S'losses'
p2
(lp3
cnumpy.core.multiarray
scalar
p4
(cnumpy
dtype
p5
(S'f4'
p6
I0
I1
tp7
Rp8
(I3
S'<'
p9
NNNI-1
I-1
I0
tp10
bS'\x01\xa9\xa3>'
p11
tp12
Rp13
ag4
(g8
S'V\x9a#?'
p14
tp15
Rp16
ag4
(g8
S"\xc4'\x9f>"
p17
tp18
Rp19
ag4
(g8
S'Kb\x94>'
p20
tp21
Rp22
ag4
(g8
S'\x04hH?'
p23
tp24
Rp25
ag4
(g8
S'\x05\xe3\x94>'
p26
tp27
Rp28
ag4
(g8
S'\xef\xa3\x9a>'
p29
tp30
Rp31
ag4
(g8
S'\xc3\xa1-?'
p32
tp33
Rp34
ag4
(g8
S'\x0f>??'
p35
tp36
Rp37
asb.