(i__main__
LossHist
p0
(dp1
S'losses'
p2
(lp3
cnumpy.core.multiarray
scalar
p4
(cnumpy
dtype
p5
(S'f4'
p6
I0
I1
tp7
Rp8
(I3
S'<'
p9
NNNI-1
I-1
I0
tp10
bS'\x12\xa6\xa4>'
p11
tp12
Rp13
ag4
(g8
S'Y\xa4%?'
p14
tp15
Rp16
ag4
(g8
S'[\xce\x1d?'
p17
tp18
Rp19
ag4
(g8
S'\xfa}\x1d?'
p20
tp21
Rp22
ag4
(g8
S'\xff\x16\x15?'
p23
tp24
Rp25
ag4
(g8
S'\xb1\xc1\xa2>'
p26
tp27
Rp28
ag4
(g8
S'\x9e\xca\x93>'
p29
tp30
Rp31
ag4
(g8
S'H\x01\x18?'
p32
tp33
Rp34
ag4
(g8
S'\xbd^*?'
p35
tp36
Rp37
ag4
(g8
S'S\xed\x1e?'
p38
tp39
Rp40
ag4
(g8
S'\x01n\x96>'
p41
tp42
Rp43
ag4
(g8
S'\xebo\xa0>'
p44
tp45
Rp46
ag4
(g8
S'\xff\xa1\x9c>'
p47
tp48
Rp49
ag4
(g8
S'N\xfb\x17?'
p50
tp51
Rp52
ag4
(g8
S"\xa4'\x8a>"
p53
tp54
Rp55
ag4
(g8
S'\x15"\x18?'
p56
tp57
Rp58
ag4
(g8
S'\xb0w\x9d>'
p59
tp60
Rp61
ag4
(g8
S'J\xe0\x18?'
p62
tp63
Rp64
ag4
(g8
S'B\x06\x9c>'
p65
tp66
Rp67
ag4
(g8
S'R\xfdR?'
p68
tp69
Rp70
ag4
(g8
S'\x04\xa4\xa8>'
p71
tp72
Rp73
ag4
(g8
S'_Y\x12?'
p74
tp75
Rp76
ag4
(g8
S'\x01\x06\x15?'
p77
tp78
Rp79
ag4
(g8
S'Y|\x88>'
p80
tp81
Rp82
ag4
(g8
S'?\xde\xa0>'
p83
tp84
Rp85
ag4
(g8
S'\xf0\xa1\x1a?'
p86
tp87
Rp88
ag4
(g8
S'\xe9\xc0\x88>'
p89
tp90
Rp91
ag4
(g8
S'\xa7\x01\x8e>'
p92
tp93
Rp94
ag4
(g8
S'\xc9\x80@?'
p95
tp96
Rp97
ag4
(g8
S'\xee\xbd)?'
p98
tp99
Rp100
ag4
(g8
S'M\x06\x92>'
p101
tp102
Rp103
ag4
(g8
S'\x05V\x9e>'
p104
tp105
Rp106
ag4
(g8
S'\x01r|>'
p107
tp108
Rp109
ag4
(g8
S'\xbd4\x9d>'
p110
tp111
Rp112
ag4
(g8
S'\xfe\xd1\x88>'
p113
tp114
Rp115
ag4
(g8
S'\xa7\x94\x98>'
p116
tp117
Rp118
ag4
(g8
S'\x16\x94\x19?'
p119
tp120
Rp121
ag4
(g8
S'\x98G\x8a>'
p122
tp123
Rp124
ag4
(g8
S'\x06\xf1\x8d>'
p125
tp126
Rp127
ag4
(g8
S'\xff\x8c\x8e>'
p128
tp129
Rp130
ag4
(g8
S'\xec\x81\x8e>'
p131
tp132
Rp133
ag4
(g8
S'6\xc0o>'
p134
tp135
Rp136
ag4
(g8
S'\xff\xb4\x91>'
p137
tp138
Rp139
ag4
(g8
S'\x06\xfb\x85>'
p140
tp141
Rp142
ag4
(g8
S'\xe9I\x13?'
p143
tp144
Rp145
ag4
(g8
S'\xb9U\x13?'
p146
tp147
Rp148
ag4
(g8
S'\x19\x90\n?'
p149
tp150
Rp151
ag4
(g8
S'\x0c\x08V?'
p152
tp153
Rp154
ag4
(g8
S'\xfeK\x19?'
p155
tp156
Rp157
ag4
(g8
S'WE%?'
p158
tp159
Rp160
ag4
(g8
S'\xb0+\x88>'
p161
tp162
Rp163
ag4
(g8
S"\x16'\x82>"
p164
tp165
Rp166
ag4
(g8
S'\xf2\xfbw>'
p167
tp168
Rp169
ag4
(g8
S'\xff_\x1c?'
p170
tp171
Rp172
ag4
(g8
S'\x07\x99\x81>'
p173
tp174
Rp175
ag4
(g8
S'\x97e\n?'
p176
tp177
Rp178
ag4
(g8
S'c\x15\x0b?'
p179
tp180
Rp181
ag4
(g8
S'\xf0\xe9\x11?'
p182
tp183
Rp184
ag4
(g8
S'L\xc0\x0b?'
p185
tp186
Rp187
ag4
(g8
S'%|c?'
p188
tp189
Rp190
ag4
(g8
S'\x16`\x18?'
p191
tp192
Rp193
ag4
(g8
S'Kt\x92>'
p194
tp195
Rp196
ag4
(g8
S'\xb5n\x08?'
p197
tp198
Rp199
ag4
(g8
S'\x02\x91_>'
p200
tp201
Rp202
ag4
(g8
S'\x02A\x85>'
p203
tp204
Rp205
ag4
(g8
S'\xff1+?'
p206
tp207
Rp208
ag4
(g8
S'8qj>'
p209
tp210
Rp211
ag4
(g8
S'\xa71\x0e?'
p212
tp213
Rp214
ag4
(g8
S'\x01\x02\x0e?'
p215
tp216
Rp217
ag4
(g8
S'\x02p\x82>'
p218
tp219
Rp220
ag4
(g8
S'Yx\x0e?'
p221
tp222
Rp223
ag4
(g8
S"\xd2't>"
p224
tp225
Rp226
ag4
(g8
S'<J(?'
p227
tp228
Rp229
ag4
(g8
S'\xb0m\x1d?'
p230
tp231
Rp232
ag4
(g8
S'U\xa4\x02?'
p233
tp234
Rp235
ag4
(g8
S'\xb2L\x05?'
p236
tp237
Rp238
ag4
(g8
S'\xc4\x91i>'
p239
tp240
Rp241
ag4
(g8
S'\xc3dQ>'
p242
tp243
Rp244
ag4
(g8
S'\xc5)\x7f>'
p245
tp246
Rp247
ag4
(g8
S'D86?'
p248
tp249
Rp250
ag4
(g8
S'\xfb\xa6\x8c>'
p251
tp252
Rp253
ag4
(g8
S'\xbd%\x19?'
p254
tp255
Rp256
ag4
(g8
S'\x01\xeau>'
p257
tp258
Rp259
ag4
(g8
S'\x07T\x05?'
p260
tp261
Rp262
ag4
(g8
S'\xf1\xb3\x1b?'
p263
tp264
Rp265
ag4
(g8
S'A\xcfm>'
p266
tp267
Rp268
ag4
(g8
S'\x02\x80W>'
p269
tp270
Rp271
ag4
(g8
S'\xa5~\x07?'
p272
tp273
Rp274
ag4
(g8
S'\xbawP>'
p275
tp276
Rp277
ag4
(g8
S'\xfc\xafS>'
p278
tp279
Rp280
ag4
(g8
S'][\x0b?'
p281
tp282
Rp283
ag4
(g8
S'\x17\xa3A?'
p284
tp285
Rp286
ag4
(g8
S'\x1b\xe5\x02?'
p287
tp288
Rp289
ag4
(g8
S'\xedH,>'
p290
tp291
Rp292
ag4
(g8
S':z\xfd>'
p293
tp294
Rp295
ag4
(g8
S'\xb5*\x0f?'
p296
tp297
Rp298
ag4
(g8
S'\x04\xc6(?'
p299
tp300
Rp301
ag4
(g8
S'\x17\x1b,>'
p302
tp303
Rp304
ag4
(g8
S'\x17\xc8,>'
p305
tp306
Rp307
ag4
(g8
S'\x12\xc31>'
p308
tp309
Rp310
ag4
(g8
S'\xf9\x99@>'
p311
tp312
Rp313
ag4
(g8
S'\xfc\xa2T>'
p314
tp315
Rp316
ag4
(g8
S"\x00\xa9'>"
p317
tp318
Rp319
ag4
(g8
S'XJ.>'
p320
tp321
Rp322
ag4
(g8
S'\x08^#>'
p323
tp324
Rp325
ag4
(g8
S'\xb5\x96&>'
p326
tp327
Rp328
ag4
(g8
S"J-'>"
p329
tp330
Rp331
ag4
(g8
S"\xb1\x9f'>"
p332
tp333
Rp334
ag4
(g8
S'`\xf9#>'
p335
tp336
Rp337
ag4
(g8
S'I\xdb,>'
p338
tp339
Rp340
ag4
(g8
S'L\xe0,>'
p341
tp342
Rp343
ag4
(g8
S'G\xd3,>'
p344
tp345
Rp346
ag4
(g8
S'\xfb\x86 >'
p347
tp348
Rp349
ag4
(g8
S'\x19+\x1d>'
p350
tp351
Rp352
ag4
(g8
S'\x01\x7f\x19>'
p353
tp354
Rp355
ag4
(g8
S'\x9d\xa5\x1c>'
p356
tp357
Rp358
ag4
(g8
S'\x97\xea\x1d>'
p359
tp360
Rp361
ag4
(g8
S'\xb4\xc9%>'
p362
tp363
Rp364
ag4
(g8
S'^\x1e#>'
p365
tp366
Rp367
ag4
(g8
S'\xe9W)>'
p368
tp369
Rp370
ag4
(g8
S'_\xb0!>'
p371
tp372
Rp373
ag4
(g8
S'\xf9:!>'
p374
tp375
Rp376
ag4
(g8
S'a\xce\x1f>'
p377
tp378
Rp379
ag4
(g8
S'\x13\xf8&>'
p380
tp381
Rp382
ag4
(g8
S'\x19\xbb\x1b>'
p383
tp384
Rp385
ag4
(g8
S'\xa0\xda\x1f>'
p386
tp387
Rp388
ag4
(g8
S'\xad\xfc\x15>'
p389
tp390
Rp391
ag4
(g8
S'\x02M\x18>'
p392
tp393
Rp394
ag4
(g8
S'\x05R\x1b>'
p395
tp396
Rp397
ag4
(g8
S'\x14T\x1b>'
p398
tp399
Rp400
ag4
(g8
S'TU\x1d>'
p401
tp402
Rp403
ag4
(g8
S'\xe6\xa9\x1f>'
p404
tp405
Rp406
ag4
(g8
S'\x03\xfd\x17>'
p407
tp408
Rp409
ag4
(g8
S'g\xfd\x1d>'
p410
tp411
Rp412
ag4
(g8
S'\x8cN\r>'
p413
tp414
Rp415
ag4
(g8
S'\xa1\x04\x0f>'
p416
tp417
Rp418
ag4
(g8
S'V\x12\x12>'
p419
tp420
Rp421
ag4
(g8
S'\x1c3\x16>'
p422
tp423
Rp424
ag4
(g8
S'\xac^\x15>'
p425
tp426
Rp427
ag4
(g8
S'\xb0\x17\x1c>'
p428
tp429
Rp430
ag4
(g8
S'\xe2\x93\n>'
p431
tp432
Rp433
ag4
(g8
S'\x8b0\t>'
p434
tp435
Rp436
ag4
(g8
S'\xe8\xf2\x0e>'
p437
tp438
Rp439
ag4
(g8
S'X\xf0\x0f>'
p440
tp441
Rp442
ag4
(g8
S'T\x0c\x16>'
p443
tp444
Rp445
ag4
(g8
S"\xfez'>"
p446
tp447
Rp448
ag4
(g8
S'_)\x0c>'
p449
tp450
Rp451
ag4
(g8
S'\x90\xf8\x11>'
p452
tp453
Rp454
ag4
(g8
S'v\xc0\x03>'
p455
tp456
Rp457
ag4
(g8
S'\x19\xde\n>'
p458
tp459
Rp460
ag4
(g8
S'o\x85\x11>'
p461
tp462
Rp463
ag4
(g8
S'\xff\xcf\x18>'
p464
tp465
Rp466
ag4
(g8
S'\x08q\x08>'
p467
tp468
Rp469
ag4
(g8
S'\x1d\x8d\x0b>'
p470
tp471
Rp472
ag4
(g8
S'\x9a\x04\x02>'
p473
tp474
Rp475
ag4
(g8
S'w\xc7\x06>'
p476
tp477
Rp478
ag4
(g8
S'[\x88\x0b>'
p479
tp480
Rp481
ag4
(g8
S'p#\r>'
p482
tp483
Rp484
ag4
(g8
S'\x9ee\x01>'
p485
tp486
Rp487
ag4
(g8
S'\x9fT\x02>'
p488
tp489
Rp490
ag4
(g8
S'\xa2\x05\x06>'
p491
tp492
Rp493
ag4
(g8
S'\xe9\xf0\x07>'
p494
tp495
Rp496
ag4
(g8
S'\xff\xdc\x03>'
p497
tp498
Rp499
ag4
(g8
S'\xa6\xc2\x08>'
p500
tp501
Rp502
ag4
(g8
S'\xe2\xd3\t>'
p503
tp504
Rp505
ag4
(g8
S'\xeb;\x18>'
p506
tp507
Rp508
ag4
(g8
S'\xf0\xde\xfd='
p509
tp510
Rp511
ag4
(g8
S'b\x1e\x01>'
p512
tp513
Rp514
ag4
(g8
S'\xffC\x04>'
p515
tp516
Rp517
ag4
(g8
S'\x01w\x04>'
p518
tp519
Rp520
ag4
(g8
S'\xcd\xae\xfa='
p521
tp522
Rp523
ag4
(g8
S'\x02r\x05>'
p524
tp525
Rp526
ag4
(g8
S'\xf7\xdd\x05>'
p527
tp528
Rp529
ag4
(g8
S'\xa4\xb8\x08>'
p530
tp531
Rp532
ag4
(g8
S'\x1b\x8d\x00>'
p533
tp534
Rp535
ag4
(g8
S'\xfe\x88\xfa='
p536
tp537
Rp538
ag4
(g8
S'\x08g\x03>'
p539
tp540
Rp541
ag4
(g8
S'nw\r>'
p542
tp543
Rp544
ag4
(g8
S'\xffI\xfa='
p545
tp546
Rp547
ag4
(g8
S'e\xe7\x03>'
p548
tp549
Rp550
ag4
(g8
S'2A\xf6='
p551
tp552
Rp553
ag4
(g8
S'\xcd\n\xf7='
p554
tp555
Rp556
ag4
(g8
S'<\x8d\xdf='
p557
tp558
Rp559
ag4
(g8
S'\xce\xdf\xf4='
p560
tp561
Rp562
ag4
(g8
S'\xc2\xec\xfe='
p563
tp564
Rp565
ag4
(g8
S'n\x87\x0b>'
p566
tp567
Rp568
ag4
(g8
S'\x05:\xf5='
p569
tp570
Rp571
ag4
(g8
S'\x1f\x0f\x02>'
p572
tp573
Rp574
ag4
(g8
S'\x888\x00>'
p575
tp576
Rp577
ag4
(g8
S'\xf8\xc5\x00>'
p578
tp579
Rp580
ag4
(g8
S'D\xee\xf1='
p581
tp582
Rp583
ag4
(g8
S'\xfe\x86\x06>'
p584
tp585
Rp586
ag4
(g8
S'\x12\xdb\xe8='
p587
tp588
Rp589
ag4
(g8
S'\xfc\x18\xf4='
p590
tp591
Rp592
ag4
(g8
S'\xbf\xf9\xf0='
p593
tp594
Rp595
ag4
(g8
S'\x9b!\x03>'
p596
tp597
Rp598
ag4
(g8
S'\xf3;\xf2='
p599
tp600
Rp601
ag4
(g8
S'@\x16\xff='
p602
tp603
Rp604
ag4
(g8
S'8\x83\xef='
p605
tp606
Rp607
ag4
(g8
S'C\xaf\xf4='
p608
tp609
Rp610
ag4
(g8
S'\xbaR\xdc='
p611
tp612
Rp613
ag4
(g8
S'\xefC\xe4='
p614
tp615
Rp616
ag4
(g8
S'\xc5\x0e\xe1='
p617
tp618
Rp619
ag4
(g8
S'8V\xec='
p620
tp621
Rp622
ag4
(g8
S'\xc4\xa3\xdb='
p623
tp624
Rp625
ag4
(g8
S'\xba\xf8\xea='
p626
tp627
Rp628
ag4
(g8
S'\xec\x03\xd2='
p629
tp630
Rp631
ag4
(g8
S'\xba}\xdc='
p632
tp633
Rp634
ag4
(g8
S'FK\xe7='
p635
tp636
Rp637
ag4
(g8
S'\x84\xd1\x01>'
p638
tp639
Rp640
ag4
(g8
S'\xc9\x98\xf3='
p641
tp642
Rp643
ag4
(g8
S'\xc24\xff='
p644
tp645
Rp646
ag4
(g8
S'\xff\xe4\xe0='
p647
tp648
Rp649
ag4
(g8
S'\xfa\xd2\xe0='
p650
tp651
Rp652
ag4
(g8
S'\xb9\xfd\xdd='
p653
tp654
Rp655
ag4
(g8
S'\xfe\xb6\xdf='
p656
tp657
Rp658
ag4
(g8
S'\xb3>\xd6='
p659
tp660
Rp661
ag4
(g8
S'\xc5\xd0\xe3='
p662
tp663
Rp664
ag4
(g8
S'\x06\n\xe3='
p665
tp666
Rp667
ag4
(g8
S'\xc4\xcf\xe1='
p668
tp669
Rp670
ag4
(g8
S'\xc4d\xd9='
p671
tp672
Rp673
ag4
(g8
S'\xfa\x06\xe2='
p674
tp675
Rp676
ag4
(g8
S'\x02 \xd1='
p677
tp678
Rp679
ag4
(g8
S'\xb5\xde\xd8='
p680
tp681
Rp682
ag4
(g8
S'\xf1\xdc\xd4='
p683
tp684
Rp685
ag4
(g8
S'M\n\xda='
p686
tp687
Rp688
ag4
(g8
S'E\xf1\xe5='
p689
tp690
Rp691
ag4
(g8
S'\x11e\xf2='
p692
tp693
Rp694
ag4
(g8
S'\xb1\xc4\xd2='
p695
tp696
Rp697
ag4
(g8
S'\xc9\x8e\xe2='
p698
tp699
Rp700
ag4
(g8
S'\x10\xbb\xc7='
p701
tp702
Rp703
ag4
(g8
S'K!\xd9='
p704
tp705
Rp706
ag4
(g8
S'<\xb5\xcd='
p707
tp708
Rp709
ag4
(g8
S'K\x15\xcd='
p710
tp711
Rp712
ag4
(g8
S'\x01H\xcc='
p713
tp714
Rp715
ag4
(g8
S'\xf1\xb7\xda='
p716
tp717
Rp718
ag4
(g8
S'\xbd\x8d\xe6='
p719
tp720
Rp721
ag4
(g8
S'\x03\x00\xfc='
p722
tp723
Rp724
ag4
(g8
S'\x01\xf3\xe9='
p725
tp726
Rp727
ag4
(g8
S'\xff7\xe5='
p728
tp729
Rp730
ag4
(g8
S'\x0f\x1f\xcb='
p731
tp732
Rp733
ag4
(g8
S'\x01\xc9\xc6='
p734
tp735
Rp736
ag4
(g8
S'\x0e\xc1\xdf='
p737
tp738
Rp739
ag4
(g8
S'\x11)\xee='
p740
tp741
Rp742
ag4
(g8
S';C\xd1='
p743
tp744
Rp745
ag4
(g8
S'\xfb\x9c\xd0='
p746
tp747
Rp748
ag4
(g8
S'\xa9\xcb\xba='
p749
tp750
Rp751
ag4
(g8
S'\x01\x1c\xbc='
p752
tp753
Rp754
ag4
(g8
S'\xc5\xdc\xd8='
p755
tp756
Rp757
ag4
(g8
S'\xc9\xb7\xe2='
p758
tp759
Rp760
ag4
(g8
S'\xfa\xe5\xce='
p761
tp762
Rp763
ag4
(g8
S'\x06\xca\xd3='
p764
tp765
Rp766
ag4
(g8
S'=\n\xcb='
p767
tp768
Rp769
ag4
(g8
S'A\x8e\xd0='
p770
tp771
Rp772
ag4
(g8
S'\xeb1\xc0='
p773
tp774
Rp775
ag4
(g8
S'\xed\xad\xc9='
p776
tp777
Rp778
ag4
(g8
S'\xbch\xc1='
p779
tp780
Rp781
ag4
(g8
S'O\x8e\xce='
p782
tp783
Rp784
ag4
(g8
S'\x05\xc3\xe2='
p785
tp786
Rp787
asb.